target datalayout = "e-m:e-p270:32:32-p271:32:32-p272:64:64-i64:64-i128:128-f80:128-n8:16:32:64-S128"
target triple = "x86_64-pc-linux-gnu"

%"class.casadi::Matrix" = type { [8 x i8], %"class.casadi::Sparsity", %"class.std::vector" }
%"class.casadi::Sparsity" = type { %"class.casadi::SharedObject" }
%"class.casadi::SharedObject" = type { ptr }
%"class.std::vector" = type { %"struct.std::_Vector_base" }
%"struct.std::_Vector_base" = type { %"struct.std::_Vector_base<long long, std::allocator<long long>>::_Vector_impl" }
%"struct.std::_Vector_base<long long, std::allocator<long long>>::_Vector_impl" = type { %"struct.std::_Vector_base<long long, std::allocator<long long>>::_Vector_impl_data" }
%"struct.std::_Vector_base<long long, std::allocator<long long>>::_Vector_impl_data" = type { ptr, ptr, ptr }

; Function Attrs: mustprogress nounwind uwtable
define weak_odr noundef nonnull align 8 dereferenceable(8) ptr @_ZNK6casadi6MatrixIxE8sparsityEv(ptr noundef nonnull align 8 dereferenceable(40) %0) #4 comdat align 2 {
  %2 = alloca ptr, align 8
  store ptr %0, ptr %2, align 8
  %3 = load ptr, ptr %2, align 8
  %4 = getelementptr inbounds %"class.casadi::Matrix", ptr %3, i32 0, i32 1
  ret ptr %4
}

; Function Attrs: mustprogress nounwind uwtable
define linkonce_odr hidden noundef nonnull align 8 dereferenceable(40) ptr @_ZNK6casadi17SparsityInterfaceINS_6MatrixIxEEE4selfEv(ptr noundef nonnull align 1 dereferenceable(1) %0) #4 comdat align 2 {
  %2 = alloca ptr, align 8
  store ptr %0, ptr %2, align 8
  %3 = load ptr, ptr %2, align 8
  ret ptr %3
}

; Function Attrs: mustprogress uwtable
define linkonce_odr hidden noundef nonnull align 8 dereferenceable(8) ptr @_ZNK6casadi13GenericMatrixINS_6MatrixIxEEE8sparsityEv(ptr noundef nonnull align 1 dereferenceable(1) %0) #5 comdat align 2 {
  %2 = alloca ptr, align 8
  store ptr %0, ptr %2, align 8
  %3 = load ptr, ptr %2, align 8
  %4 = call noundef nonnull align 8 dereferenceable(40) ptr @_ZNK6casadi17SparsityInterfaceINS_6MatrixIxEEE4selfEv(ptr noundef nonnull align 1 dereferenceable(1) %3)
  %5 = call noundef nonnull align 8 dereferenceable(8) ptr @_ZNK6casadi6MatrixIxE8sparsityEv(ptr noundef nonnull align 8 dereferenceable(40) %4)
  ret ptr %5
}

; Function Attrs: mustprogress nounwind uwtable
define weak_odr noundef nonnull align 8 dereferenceable(24) ptr @_ZNK6casadi6MatrixIxE8nonzerosEv(ptr noundef nonnull align 8 dereferenceable(40) %0) #4 comdat align 2 {
  %2 = alloca ptr, align 8
  store ptr %0, ptr %2, align 8
  %3 = load ptr, ptr %2, align 8
  %4 = getelementptr inbounds %"class.casadi::Matrix", ptr %3, i32 0, i32 2
  ret ptr %4
}

; Function Attrs: mustprogress uwtable
define linkonce_odr hidden noundef zeroext i1 @_ZNK6casadi13GenericMatrixINS_6MatrixIxEEE8is_denseEv(ptr noundef nonnull align 1 dereferenceable(1) %0) #5 comdat align 2 {
  %2 = alloca ptr, align 8
  store ptr %0, ptr %2, align 8
  %3 = load ptr, ptr %2, align 8
  %4 = call noundef nonnull align 8 dereferenceable(8) ptr @_ZNK6casadi13GenericMatrixINS_6MatrixIxEEE8sparsityEv(ptr noundef nonnull align 1 dereferenceable(1) %3)
  %5 = call noundef zeroext i1 @_ZNK6casadi8Sparsity8is_denseEv(ptr noundef nonnull align 8 dereferenceable(8) %4)
  ret i1 %5
}

; Function Attrs: mustprogress uwtable
define linkonce_odr hidden noundef zeroext i1 @_ZNK6casadi13GenericMatrixINS_6MatrixIxEEE9is_columnEv(ptr noundef nonnull align 1 dereferenceable(1) %0) #5 comdat align 2 {
  %2 = alloca ptr, align 8
  store ptr %0, ptr %2, align 8
  %3 = load ptr, ptr %2, align 8
  %4 = call noundef nonnull align 8 dereferenceable(8) ptr @_ZNK6casadi13GenericMatrixINS_6MatrixIxEEE8sparsityEv(ptr noundef nonnull align 1 dereferenceable(1) %3)
  %5 = call noundef zeroext i1 @_ZNK6casadi8Sparsity9is_columnEv(ptr noundef nonnull align 8 dereferenceable(8) %4)
  ret i1 %5
}

; Function Attrs: mustprogress uwtable
define linkonce_odr hidden noundef zeroext i1 @_ZNK6casadi13GenericMatrixINS_6MatrixIxEEE9is_scalarEb(ptr noundef nonnull align 1 dereferenceable(1) %0, i1 noundef zeroext %1) #5 comdat align 2 {
  %3 = alloca ptr, align 8
  %4 = alloca i8, align 1
  store ptr %0, ptr %3, align 8
  %5 = zext i1 %1 to i8
  store i8 %5, ptr %4, align 1
  %6 = load ptr, ptr %3, align 8
  %7 = call noundef nonnull align 8 dereferenceable(8) ptr @_ZNK6casadi13GenericMatrixINS_6MatrixIxEEE8sparsityEv(ptr noundef nonnull align 1 dereferenceable(1) %6)
  %8 = load i8, ptr %4, align 1
  %9 = trunc i8 %8 to i1
  %10 = call noundef zeroext i1 @_ZNK6casadi8Sparsity9is_scalarEb(ptr noundef nonnull align 8 dereferenceable(8) %7, i1 noundef zeroext %9)
  ret i1 %10
}

; Function Attrs: mustprogress uwtable
define noundef zeroext i1 @_ZN6casadi8is_sliceERKNS_6MatrixIxEEb(ptr noundef nonnull align 8 dereferenceable(40) %0, i1 noundef zeroext %1) #5 {
  %3 = alloca ptr, align 8
  %4 = alloca i8, align 1
  store ptr %0, ptr %3, align 8
  %5 = zext i1 %1 to i8
  store i8 %5, ptr %4, align 1
  %6 = load ptr, ptr %3, align 8
  %7 = call noundef zeroext i1 @_ZNK6casadi13GenericMatrixINS_6MatrixIxEEE9is_scalarEb(ptr noundef nonnull align 1 dereferenceable(1) %6, i1 noundef zeroext false)
  br i1 %7, label %22, label %8

8:                                                ; preds = %2
  %9 = load ptr, ptr %3, align 8
  %10 = call noundef zeroext i1 @_ZNK6casadi13GenericMatrixINS_6MatrixIxEEE9is_columnEv(ptr noundef nonnull align 1 dereferenceable(1) %9)
  br i1 %10, label %11, label %20

11:                                               ; preds = %8
  %12 = load ptr, ptr %3, align 8
  %13 = call noundef zeroext i1 @_ZNK6casadi13GenericMatrixINS_6MatrixIxEEE8is_denseEv(ptr noundef nonnull align 1 dereferenceable(1) %12)
  br i1 %13, label %14, label %20

14:                                               ; preds = %11
  %15 = load ptr, ptr %3, align 8
  %16 = call noundef nonnull align 8 dereferenceable(24) ptr @_ZNK6casadi6MatrixIxE8nonzerosEv(ptr noundef nonnull align 8 dereferenceable(40) %15)
  %17 = load i8, ptr %4, align 1
  %18 = trunc i8 %17 to i1
  %19 = call noundef zeroext i1 @_ZN6casadi8is_sliceERKSt6vectorIxSaIxEEb(ptr noundef nonnull align 8 dereferenceable(24) %16, i1 noundef zeroext %18)
  br label %20

20:                                               ; preds = %14, %11, %8
  %21 = phi i1 [ false, %11 ], [ false, %8 ], [ %19, %14 ]
  br label %22

22:                                               ; preds = %20, %2
  %23 = phi i1 [ true, %2 ], [ %21, %20 ]
  ret i1 %23
}