; Function Attrs: mustprogress uwtable
define noundef zeroext i1 @_ZN6casadi8is_sliceERKNS_6MatrixIxEEb(ptr noundef nonnull align 8 dereferenceable(40) %0, i1 noundef zeroext %1) local_unnamed_addr #4 {
  %3 = getelementptr inbounds i8, ptr %0, i64 8
  %4 = tail call noundef zeroext i1 @_ZNK6casadi8Sparsity9is_scalarEb(ptr noundef nonnull align 8 dereferenceable(8) %3, i1 noundef zeroext false)
  br i1 %4, label %12, label %5

5:                                                ; preds = %2
  %6 = tail call noundef zeroext i1 @_ZNK6casadi8Sparsity9is_columnEv(ptr noundef nonnull align 8 dereferenceable(8) %3)
  br i1 %6, label %7, label %12

7:                                                ; preds = %5
  %8 = tail call noundef zeroext i1 @_ZNK6casadi8Sparsity8is_denseEv(ptr noundef nonnull align 8 dereferenceable(8) %3)
  br i1 %8, label %9, label %12

9:                                                ; preds = %7
  %10 = getelementptr inbounds i8, ptr %0, i64 16
  %11 = tail call noundef zeroext i1 @_ZN6casadi8is_sliceERKSt6vectorIxSaIxEEb(ptr noundef nonnull align 8 dereferenceable(24) %10, i1 noundef zeroext %1)
  br label %12

12:                                               ; preds = %5, %7, %9, %2
  %13 = phi i1 [ true, %2 ], [ false, %7 ], [ false, %5 ], [ %11, %9 ]
  ret i1 %13
}